; Function Attrs: mustprogress uwtable
define hidden void @_ZN5zxing15HybridBinarizer15createBinarizerENS_3RefINS_15LuminanceSourceEEE(ptr dead_on_unwind noalias writable writeonly sret(%"class.zxing::Ref.4") align 8 captures(none) %0, ptr nonnull readnone align 8 captures(none) %1, ptr noundef readonly captures(none) %2) unnamed_addr #0 align 2 personality ptr @__gxx_personality_v0 {
  %4 = alloca %"class.zxing::Ref", align 8
  %5 = tail call noalias noundef nonnull dereferenceable(128) ptr @_Znwm(i64 noundef 128) #11
  %6 = load ptr, ptr %2, align 8, !tbaa !3
  %.not.i.i = icmp eq ptr %6, null
  br i1 %.not.i.i, label %11, label %7

7:                                                ; preds = %3
  %8 = getelementptr inbounds nuw i8, ptr %6, i64 8
  %9 = load i32, ptr %8, align 8, !tbaa !9
  %10 = add i32 %9, 1
  store i32 %10, ptr %8, align 8, !tbaa !9
  br label %11

11:                                               ; preds = %7, %3
  store ptr %6, ptr %4, align 8, !tbaa !3
  invoke void @_ZN5zxing24GlobalHistogramBinarizerC1ENS_3RefINS_15LuminanceSourceEEE(ptr noundef nonnull align 8 dereferenceable(121) %5, ptr noundef nonnull %4)
          to label %12 unwind label %26

12:                                               ; preds = %11
  %13 = getelementptr inbounds nuw i8, ptr %5, i64 8
  %14 = load i32, ptr %13, align 8, !tbaa !9
  %15 = add i32 %14, 1
  store i32 %15, ptr %13, align 8, !tbaa !9
  store ptr %5, ptr %0, align 8, !tbaa !67
  %16 = load ptr, ptr %4, align 8, !tbaa !3
  %.not.i = icmp eq ptr %16, null
  br i1 %.not.i, label %_ZN5zxing3RefINS_15LuminanceSourceEED2Ev.exit, label %17

17:                                               ; preds = %12
  %18 = getelementptr inbounds nuw i8, ptr %16, i64 8
  %19 = load i32, ptr %18, align 8, !tbaa !9
  %20 = add i32 %19, -1
  store i32 %20, ptr %18, align 8, !tbaa !9
  %21 = icmp eq i32 %20, 0
  br i1 %21, label %22, label %_ZN5zxing3RefINS_15LuminanceSourceEED2Ev.exit

22:                                               ; preds = %17
  store i32 -559026175, ptr %18, align 8, !tbaa !9
  %23 = load ptr, ptr %16, align 8, !tbaa !12
  %24 = getelementptr inbounds nuw i8, ptr %23, i64 8
  %25 = load ptr, ptr %24, align 8
  call void %25(ptr noundef nonnull align 8 dereferenceable(12) %16) #10
  br label %_ZN5zxing3RefINS_15LuminanceSourceEED2Ev.exit

_ZN5zxing3RefINS_15LuminanceSourceEED2Ev.exit:    ; preds = %12, %17, %22
  ret void

26:                                               ; preds = %11
  %27 = landingpad { ptr, i32 }
          cleanup
  %28 = load ptr, ptr %4, align 8, !tbaa !3
  %.not.i6 = icmp eq ptr %28, null
  br i1 %.not.i6, label %38, label %29

29:                                               ; preds = %26
  %30 = getelementptr inbounds nuw i8, ptr %28, i64 8
  %31 = load i32, ptr %30, align 8, !tbaa !9
  %32 = add i32 %31, -1
  store i32 %32, ptr %30, align 8, !tbaa !9
  %33 = icmp eq i32 %32, 0
  br i1 %33, label %34, label %38

34:                                               ; preds = %29
  store i32 -559026175, ptr %30, align 8, !tbaa !9
  %35 = load ptr, ptr %28, align 8, !tbaa !12
  %36 = getelementptr inbounds nuw i8, ptr %35, i64 8
  %37 = load ptr, ptr %36, align 8
  call void %37(ptr noundef nonnull align 8 dereferenceable(12) %28) #10
  br label %38

38:                                               ; preds = %34, %29, %26
  call void @_ZdlPv(ptr noundef nonnull %5) #13
  resume { ptr, i32 } %27
}